Certificate:
    Data:
        Version: 3 (0x2)
        Serial Number:
            47:77:26:6d:ae:6c:57:73:eb:80:e2:96:dd:26:93:ff:e9:f5:62:5d
        Signature Algorithm: sha512WithRSAEncryption
        Issuer: CN=Canonical Ltd. Live Patch Signing 2025 Kmod
        Validity
            Not Before: May 16 09:07:40 2025 GMT
            Not After : May 16 09:07:40 2050 GMT
        Subject: CN=Canonical Ltd. Live Patch Signing 2025 Kmod
        Subject Public Key Info:
            Public Key Algorithm: rsaEncryption
                Public-Key: (4096 bit)
                Modulus:
                    00:b8:a9:03:47:2e:7b:c6:86:16:f4:b7:a8:4d:3b:
                    05:f6:c4:75:35:e9:22:8a:4e:40:06:89:15:7f:ad:
                    99:bb:e6:90:93:61:c8:16:cf:2e:00:1b:81:36:fd:
                    cc:31:7b:97:79:8d:5e:d2:4d:d3:2f:ab:35:2d:74:
                    48:98:b3:d9:75:f9:bb:e1:f2:3f:6b:6d:dc:e4:bb:
                    ee:f5:aa:f7:8a:8c:7a:a8:0b:df:b1:f8:d6:04:13:
                    27:e9:1a:aa:c2:4d:d2:35:3a:bc:06:d7:83:7f:e8:
                    c4:1c:63:8b:3a:ff:0e:0b:89:6e:4f:5f:ea:ad:78:
                    df:37:ab:f9:55:1d:fb:6e:29:a4:22:43:d1:9b:12:
                    1e:b2:84:23:1b:d2:38:91:b8:a8:6c:1c:59:3c:ff:
                    4c:a9:18:ce:d0:7f:1d:ef:04:cf:8a:e8:29:b2:4b:
                    68:0d:92:32:bc:9c:5d:8f:0a:d1:dd:4d:25:ba:3a:
                    8c:6a:48:5b:1e:9c:01:10:99:c1:a7:34:ee:68:ec:
                    a1:d3:26:be:45:c8:b4:97:ac:8a:aa:7e:13:a6:e5:
                    43:f1:1b:3f:a1:80:0a:d2:a9:e7:f2:77:ca:e1:f5:
                    29:36:df:75:8a:7e:02:d6:17:aa:46:12:b9:51:f0:
                    6b:ca:22:f8:05:de:d6:02:47:76:0c:88:f1:c6:90:
                    44:99:58:71:c7:62:1e:2b:94:c5:2b:8e:dc:ca:7b:
                    a7:bd:cd:38:8f:4e:73:6d:b0:9b:4e:7c:12:1f:5c:
                    c5:62:d6:82:c6:d2:78:09:52:dc:d7:78:2e:23:d0:
                    63:1f:7d:77:91:c8:3f:66:7a:20:8a:cf:70:09:0f:
                    a2:c0:82:a5:42:d9:be:dc:5f:78:73:f7:fa:3c:70:
                    47:7b:39:77:89:5a:6f:ef:83:09:c9:1b:21:53:89:
                    7c:10:bf:99:9c:05:39:32:1e:84:3b:a5:84:7e:ef:
                    08:6d:b0:b0:31:61:d6:1a:aa:dd:7a:d6:10:02:e6:
                    72:02:e5:40:bf:07:b9:cd:61:d1:55:04:9a:cd:02:
                    73:41:c1:df:20:30:12:97:ca:a1:83:1a:97:8a:92:
                    1c:47:5c:0a:60:da:41:3b:e6:0e:2c:82:ce:45:65:
                    81:ba:45:a1:66:cc:ef:ab:65:5c:e5:a8:0c:86:dd:
                    fc:86:54:f3:37:7c:89:a9:0c:fa:3a:da:82:c9:90:
                    99:1e:1d:66:44:de:d3:c5:d4:0b:da:15:f8:d8:d4:
                    63:2b:4e:6f:24:e9:c2:d7:74:9c:29:91:9f:25:39:
                    8d:77:15:8c:cb:8e:ad:e3:80:0a:ea:79:04:72:9d:
                    51:01:18:ae:35:51:ef:95:79:38:c4:db:99:50:47:
                    62:38:e9
                Exponent: 65537 (0x10001)
        X509v3 extensions:
            X509v3 Basic Constraints: critical
                CA:FALSE
            X509v3 Key Usage: 
                Digital Signature
            X509v3 Subject Key Identifier: 
                D5:41:CE:F6:1D:C7:E7:93:B7:EB:7E:89:99:70:A2:EE:F0:B5:DC:8C
            X509v3 Authority Key Identifier: 
                D5:41:CE:F6:1D:C7:E7:93:B7:EB:7E:89:99:70:A2:EE:F0:B5:DC:8C
            X509v3 Extended Key Usage: 
                Code Signing, 1.3.6.1.4.1.2312.16.1.2
    Signature Algorithm: sha512WithRSAEncryption
    Signature Value:
        40:9d:5b:70:66:fe:9c:99:eb:ed:78:61:be:da:67:da:ac:80:
        a8:c2:78:91:f8:90:11:be:9f:6a:e7:bf:79:dc:11:0c:c7:83:
        e8:13:c4:1c:b6:fe:f0:e7:7d:1a:12:97:5d:19:56:9c:10:12:
        1e:b9:19:88:30:95:c4:3b:2f:aa:91:6f:c1:9e:68:4a:f4:5c:
        ef:a1:51:b5:a3:9b:58:3f:e2:ae:5c:29:a6:c4:30:fd:65:0b:
        cc:8c:99:95:33:61:c6:07:fa:c3:bd:1a:57:80:e5:43:97:2e:
        f3:5c:d6:1e:b7:23:9f:58:10:19:24:46:9e:f8:fd:2c:8e:88:
        e7:ec:ef:15:4b:7a:6a:ce:b0:25:c0:01:c5:21:83:1a:d5:89:
        0c:90:86:ad:d4:3e:6e:28:bf:6c:21:91:ff:b9:a9:ef:d4:ac:
        de:7c:67:c1:e4:ed:75:26:15:ff:5d:67:39:24:2d:15:57:21:
        09:76:e5:85:f3:45:e8:bf:b1:c0:39:2b:83:34:1a:f5:3f:1f:
        ae:07:8c:82:1f:d4:dc:95:c0:4e:f3:7f:ac:db:8f:2c:db:a4:
        d4:2a:4c:8c:de:e6:5b:84:fc:df:a3:74:d8:dc:9c:93:1f:5b:
        c9:33:b5:b3:7d:2b:a4:4d:7a:bb:73:92:ff:8d:e9:9e:c7:a7:
        d2:0d:83:bb:2c:2f:47:51:15:5c:6d:db:9a:d3:9e:6e:25:90:
        01:e6:09:bd:a2:d0:1e:cf:a3:12:22:0d:56:70:bf:89:e4:be:
        62:76:9c:d9:f5:c8:01:55:95:02:57:a1:67:59:88:97:57:f6:
        bb:8d:c9:40:d5:e3:60:4f:43:dd:49:90:fa:a5:6d:08:96:b2:
        4d:dd:a7:c6:e3:5c:06:ba:af:8c:30:9d:d5:a5:b0:ab:c4:e5:
        f3:09:47:05:ba:9b:46:f4:26:70:3b:fa:da:a5:0a:47:ce:be:
        43:87:eb:73:63:3b:cd:41:7a:78:a0:f6:7d:c5:37:fb:bb:26:
        3b:b3:e7:44:49:06:8c:14:03:fc:b3:46:54:3b:0d:57:02:08:
        99:79:68:a2:9c:62:95:4d:ac:8e:19:43:4e:8f:2d:52:fa:91:
        ca:78:06:a2:b7:a3:66:6d:67:0b:13:ee:b1:01:38:e0:7c:ac:
        9a:16:27:36:f1:45:83:5d:eb:d6:cd:65:3f:56:9a:d3:56:c4:
        15:55:b2:64:ca:13:cb:31:1e:7e:03:85:68:61:40:02:99:4b:
        25:01:68:8d:97:cc:39:1a:54:1b:e5:51:38:8e:ce:66:74:61:
        5e:87:f4:31:7d:0d:be:9d:01:e1:b3:5c:bc:1a:d0:ea:5e:b2:
        c8:ee:97:34:bc:9f:bb:98
-----BEGIN CERTIFICATE-----
MIIFejCCA2KgAwIBAgIUR3cmba5sV3PrgOKW3SaT/+n1Yl0wDQYJKoZIhvcNAQEN
BQAwNjE0MDIGA1UEAwwrQ2Fub25pY2FsIEx0ZC4gTGl2ZSBQYXRjaCBTaWduaW5n
IDIwMjUgS21vZDAgFw0yNTA1MTYwOTA3NDBaGA8yMDUwMDUxNjA5MDc0MFowNjE0
MDIGA1UEAwwrQ2Fub25pY2FsIEx0ZC4gTGl2ZSBQYXRjaCBTaWduaW5nIDIwMjUg
S21vZDCCAiIwDQYJKoZIhvcNAQEBBQADggIPADCCAgoCggIBALipA0cue8aGFvS3
qE07BfbEdTXpIopOQAaJFX+tmbvmkJNhyBbPLgAbgTb9zDF7l3mNXtJN0y+rNS10
SJiz2XX5u+HyP2tt3OS77vWq94qMeqgL37H41gQTJ+kaqsJN0jU6vAbXg3/oxBxj
izr/DguJbk9f6q143zer+VUd+24ppCJD0ZsSHrKEIxvSOJG4qGwcWTz/TKkYztB/
He8Ez4roKbJLaA2SMrycXY8K0d1NJbo6jGpIWx6cARCZwac07mjsodMmvkXItJes
iqp+E6blQ/EbP6GACtKp5/J3yuH1KTbfdYp+AtYXqkYSuVHwa8oi+AXe1gJHdgyI
8caQRJlYccdiHiuUxSuO3Mp7p73NOI9Oc22wm058Eh9cxWLWgsbSeAlS3Nd4LiPQ
Yx99d5HIP2Z6IIrPcAkPosCCpULZvtxfeHP3+jxwR3s5d4lab++DCckbIVOJfBC/
mZwFOTIehDulhH7vCG2wsDFh1hqq3XrWEALmcgLlQL8Huc1h0VUEms0Cc0HB3yAw
EpfKoYMal4qSHEdcCmDaQTvmDiyCzkVlgbpFoWbM76tlXOWoDIbd/IZU8zd8iakM
+jragsmQmR4dZkTe08XUC9oV+NjUYytObyTpwtd0nCmRnyU5jXcVjMuOreOACup5
BHKdUQEYrjVR75V5OMTbmVBHYjjpAgMBAAGjfjB8MAwGA1UdEwEB/wQCMAAwCwYD
VR0PBAQDAgeAMB0GA1UdDgQWBBTVQc72Hcfnk7frfomZcKLu8LXcjDAfBgNVHSME
GDAWgBTVQc72Hcfnk7frfomZcKLu8LXcjDAfBgNVHSUEGDAWBggrBgEFBQcDAwYK
KwYBBAGSCBABAjANBgkqhkiG9w0BAQ0FAAOCAgEAQJ1bcGb+nJnr7Xhhvtpn2qyA
qMJ4kfiQEb6faue/edwRDMeD6BPEHLb+8Od9GhKXXRlWnBASHrkZiDCVxDsvqpFv
wZ5oSvRc76FRtaObWD/irlwppsQw/WULzIyZlTNhxgf6w70aV4DlQ5cu81zWHrcj
n1gQGSRGnvj9LI6I5+zvFUt6as6wJcABxSGDGtWJDJCGrdQ+bii/bCGR/7mp79Ss
3nxnweTtdSYV/11nOSQtFVchCXblhfNF6L+xwDkrgzQa9T8frgeMgh/U3JXATvN/
rNuPLNuk1CpMjN7mW4T836N02Nyckx9byTO1s30rpE16u3OS/43pnsen0g2Duywv
R1EVXG3bmtOebiWQAeYJvaLQHs+jEiINVnC/ieS+Ynac2fXIAVWVAlehZ1mIl1f2
u43JQNXjYE9D3UmQ+qVtCJayTd2nxuNcBrqvjDCd1aWwq8Tl8wlHBbqbRvQmcDv6
2qUKR86+Q4frc2M7zUF6eKD2fcU3+7smO7PnREkGjBQD/LNGVDsNVwIImXloopxi
lU2sjhlDTo8tUvqRyngGorejZm1nCxPusQE44HysmhYnNvFFg13r1s1lP1aa01bE
FVWyZMoTyzEefgOFaGFAAplLJQFojZfMORpUG+VROI7OZnRhXof0MX0Nvp0B4bNc
vBrQ6l6yyO6XNLyfu5g=
-----END CERTIFICATE-----
